target datalayout = "e-m:e-p270:32:32-p271:32:32-p272:64:64-i64:64-i128:128-f80:128-n8:16:32:64-S128"
target triple = "x86_64-pc-linux-gnu"

%"class.google::protobuf::strings::ByteSink" = type { ptr }
%"class.google::protobuf::strings::CheckedArrayByteSink" = type <{ %"class.google::protobuf::strings::ByteSink", ptr, i64, i64, i8, [7 x i8] }>

; Function Attrs: mustprogress nounwind uwtable
define linkonce_odr hidden void @_ZN6google8protobuf7strings8ByteSinkC2Ev(ptr noundef nonnull align 8 dereferenceable(8) %0) unnamed_addr #6 comdat align 2 {
  %2 = alloca ptr, align 8
  store ptr %0, ptr %2, align 8, !tbaa !8
  %3 = load ptr, ptr %2, align 8
  store ptr getelementptr inbounds inrange(-16, 32) ({ [6 x ptr] }, ptr @_ZTVN6google8protobuf7strings8ByteSinkE, i32 0, i32 0, i32 2), ptr %3, align 8, !tbaa !12
  ret void
}

; Function Attrs: mustprogress uwtable
define hidden void @_ZN6google8protobuf7strings20CheckedArrayByteSinkC2EPcm(ptr noundef nonnull align 8 dereferenceable(33) %0, ptr noundef %1, i64 noundef %2) unnamed_addr #4 align 2 {
  %4 = alloca ptr, align 8
  %5 = alloca ptr, align 8
  %6 = alloca i64, align 8
  store ptr %0, ptr %4, align 8, !tbaa !31
  store ptr %1, ptr %5, align 8, !tbaa !26
  store i64 %2, ptr %6, align 8, !tbaa !10
  %7 = load ptr, ptr %4, align 8
  call void @_ZN6google8protobuf7strings8ByteSinkC2Ev(ptr noundef nonnull align 8 dereferenceable(8) %7)
  store ptr getelementptr inbounds inrange(-16, 32) ({ [6 x ptr] }, ptr @_ZTVN6google8protobuf7strings20CheckedArrayByteSinkE, i32 0, i32 0, i32 2), ptr %7, align 8, !tbaa !12
  %8 = getelementptr inbounds nuw %"class.google::protobuf::strings::CheckedArrayByteSink", ptr %7, i32 0, i32 1
  %9 = load ptr, ptr %5, align 8, !tbaa !26
  store ptr %9, ptr %8, align 8, !tbaa !33
  %10 = getelementptr inbounds nuw %"class.google::protobuf::strings::CheckedArrayByteSink", ptr %7, i32 0, i32 2
  %11 = load i64, ptr %6, align 8, !tbaa !10
  store i64 %11, ptr %10, align 8, !tbaa !36
  %12 = getelementptr inbounds nuw %"class.google::protobuf::strings::CheckedArrayByteSink", ptr %7, i32 0, i32 3
  store i64 0, ptr %12, align 8, !tbaa !37
  %13 = getelementptr inbounds nuw %"class.google::protobuf::strings::CheckedArrayByteSink", ptr %7, i32 0, i32 4
  store i8 0, ptr %13, align 8, !tbaa !38
  ret void
}