; Function Attrs: mustprogress nofree norecurse nosync nounwind willreturn memory(argmem: write) uwtable
define hidden void @_ZN6google8protobuf7strings20CheckedArrayByteSinkC2EPcm(ptr noundef nonnull writeonly align 8 captures(none) dereferenceable(33) initializes((0, 33)) %0, ptr noundef %1, i64 noundef %2) unnamed_addr #8 align 2 {
  store ptr getelementptr inbounds nuw inrange(-16, 32) (i8, ptr @_ZTVN6google8protobuf7strings20CheckedArrayByteSinkE, i64 16), ptr %0, align 8, !tbaa !3
  %4 = getelementptr inbounds nuw i8, ptr %0, i64 8
  store ptr %1, ptr %4, align 8, !tbaa !12
  %5 = getelementptr inbounds nuw i8, ptr %0, i64 16
  store i64 %2, ptr %5, align 8, !tbaa !16
  %6 = getelementptr inbounds nuw i8, ptr %0, i64 24
  store i64 0, ptr %6, align 8, !tbaa !17
  %7 = getelementptr inbounds nuw i8, ptr %0, i64 32
  store i8 0, ptr %7, align 8, !tbaa !18
  ret void
}